; ModuleID = '46/45.c'
source_filename = "46/45.c"
target datalayout = "e-m:e-p270:32:32-p271:32:32-p272:64:64-i64:64-f80:128-n8:16:32:64-S128"
target triple = "x86_64-pc-linux-gnu"

@.str = private unnamed_addr constant [5 x i8] c"%d%d\00", align 1
@.str.1 = private unnamed_addr constant [3 x i8] c"%d\00", align 1
@.str.2 = private unnamed_addr constant [4 x i8] c"%d\0A\00", align 1
@.str.3 = private unnamed_addr constant [2 x i8] c"\0A\00", align 1

; Function Attrs: noinline nounwind uwtable
define dso_local i32 @main() #0 {
  %1 = alloca i32, align 4
  %2 = alloca i32, align 4
  %3 = alloca i32, align 4
  %4 = alloca i32, align 4
  %5 = alloca i32, align 4
  %6 = alloca i32, align 4
  %7 = alloca i32, align 4
  %8 = alloca [100 x [100 x i32]], align 16
  store i32 0, i32* %1, align 4
  store i32 0, i32* %7, align 4
  %9 = call i32 (i8*, ...) @__isoc99_scanf(i8* getelementptr inbounds ([5 x i8], [5 x i8]* @.str, i64 0, i64 0), i32* %2, i32* %3)
  store i32 0, i32* %4, align 4
  br label %10

10:                                               ; preds = %31, %0
  %11 = load i32, i32* %4, align 4
  %12 = load i32, i32* %2, align 4
  %13 = icmp slt i32 %11, %12
  br i1 %13, label %14, label %34

14:                                               ; preds = %10
  store i32 0, i32* %5, align 4
  br label %15

15:                                               ; preds = %27, %14
  %16 = load i32, i32* %5, align 4
  %17 = load i32, i32* %3, align 4
  %18 = icmp slt i32 %16, %17
  br i1 %18, label %19, label %30

19:                                               ; preds = %15
  %20 = load i32, i32* %4, align 4
  %21 = sext i32 %20 to i64
  %22 = getelementptr inbounds [100 x [100 x i32]], [100 x [100 x i32]]* %8, i64 0, i64 %21
  %23 = load i32, i32* %5, align 4
  %24 = sext i32 %23 to i64
  %25 = getelementptr inbounds [100 x i32], [100 x i32]* %22, i64 0, i64 %24
  %26 = call i32 (i8*, ...) @__isoc99_scanf(i8* getelementptr inbounds ([3 x i8], [3 x i8]* @.str.1, i64 0, i64 0), i32* %25)
  br label %27

27:                                               ; preds = %19
  %28 = load i32, i32* %5, align 4
  %29 = add nsw i32 %28, 1
  store i32 %29, i32* %5, align 4
  br label %15

30:                                               ; preds = %15
  br label %31

31:                                               ; preds = %30
  %32 = load i32, i32* %4, align 4
  %33 = add nsw i32 %32, 1
  store i32 %33, i32* %4, align 4
  br label %10

34:                                               ; preds = %10
  store i32 0, i32* %6, align 4
  br label %35

35:                                               ; preds = %190, %34
  %36 = load i32, i32* %6, align 4
  store i32 %36, i32* %4, align 4
  br label %37

37:                                               ; preds = %59, %35
  %38 = load i32, i32* %4, align 4
  %39 = load i32, i32* %3, align 4
  %40 = load i32, i32* %6, align 4
  %41 = sub nsw i32 %39, %40
  %42 = icmp slt i32 %38, %41
  br i1 %42, label %43, label %62

43:                                               ; preds = %37
  %44 = load i32, i32* %6, align 4
  %45 = sext i32 %44 to i64
  %46 = getelementptr inbounds [100 x [100 x i32]], [100 x [100 x i32]]* %8, i64 0, i64 %45
  %47 = load i32, i32* %4, align 4
  %48 = sext i32 %47 to i64
  %49 = getelementptr inbounds [100 x i32], [100 x i32]* %46, i64 0, i64 %48
  %50 = load i32, i32* %49, align 4
  %51 = call i32 (i8*, ...) @printf(i8* getelementptr inbounds ([4 x i8], [4 x i8]* @.str.2, i64 0, i64 0), i32 %50)
  %52 = load i32, i32* %7, align 4
  %53 = add nsw i32 %52, 1
  store i32 %53, i32* %7, align 4
  %54 = load i32, i32* %7, align 4
  %55 = icmp ne i32 %54, 0
  br i1 %55, label %56, label %58

56:                                               ; preds = %43
  %57 = call i32 (i8*, ...) @printf(i8* getelementptr inbounds ([2 x i8], [2 x i8]* @.str.3, i64 0, i64 0))
  br label %58

58:                                               ; preds = %56, %43
  br label %59

59:                                               ; preds = %58
  %60 = load i32, i32* %4, align 4
  %61 = add nsw i32 %60, 1
  store i32 %61, i32* %4, align 4
  br label %37

62:                                               ; preds = %37
  %63 = load i32, i32* %7, align 4
  %64 = load i32, i32* %2, align 4
  %65 = load i32, i32* %3, align 4
  %66 = mul nsw i32 %64, %65
  %67 = icmp eq i32 %63, %66
  br i1 %67, label %68, label %69

68:                                               ; preds = %62
  br label %193

69:                                               ; preds = %62
  %70 = load i32, i32* %6, align 4
  %71 = add nsw i32 %70, 1
  store i32 %71, i32* %5, align 4
  br label %72

72:                                               ; preds = %100, %69
  %73 = load i32, i32* %5, align 4
  %74 = load i32, i32* %2, align 4
  %75 = load i32, i32* %6, align 4
  %76 = sub nsw i32 %74, %75
  %77 = icmp slt i32 %73, %76
  br i1 %77, label %78, label %103

78:                                               ; preds = %72
  %79 = load i32, i32* %5, align 4
  %80 = sext i32 %79 to i64
  %81 = getelementptr inbounds [100 x [100 x i32]], [100 x [100 x i32]]* %8, i64 0, i64 %80
  %82 = load i32, i32* %3, align 4
  %83 = load i32, i32* %6, align 4
  %84 = sub nsw i32 %82, %83
  %85 = sub nsw i32 %84, 1
  %86 = sext i32 %85 to i64
  %87 = getelementptr inbounds [100 x i32], [100 x i32]* %81, i64 0, i64 %86
  %88 = load i32, i32* %87, align 4
  %89 = call i32 (i8*, ...) @printf(i8* getelementptr inbounds ([4 x i8], [4 x i8]* @.str.2, i64 0, i64 0), i32 %88)
  %90 = load i32, i32* %7, align 4
  %91 = add nsw i32 %90, 1
  store i32 %91, i32* %7, align 4
  %92 = load i32, i32* %7, align 4
  %93 = load i32, i32* %2, align 4
  %94 = load i32, i32* %3, align 4
  %95 = mul nsw i32 %93, %94
  %96 = icmp ne i32 %92, %95
  br i1 %96, label %97, label %99

97:                                               ; preds = %78
  %98 = call i32 (i8*, ...) @printf(i8* getelementptr inbounds ([2 x i8], [2 x i8]* @.str.3, i64 0, i64 0))
  br label %99

99:                                               ; preds = %97, %78
  br label %100

100:                                              ; preds = %99
  %101 = load i32, i32* %5, align 4
  %102 = add nsw i32 %101, 1
  store i32 %102, i32* %5, align 4
  br label %72

103:                                              ; preds = %72
  %104 = load i32, i32* %7, align 4
  %105 = load i32, i32* %2, align 4
  %106 = load i32, i32* %3, align 4
  %107 = mul nsw i32 %105, %106
  %108 = icmp eq i32 %104, %107
  br i1 %108, label %109, label %110

109:                                              ; preds = %103
  br label %193

110:                                              ; preds = %103
  %111 = load i32, i32* %3, align 4
  %112 = sub nsw i32 %111, 2
  %113 = load i32, i32* %6, align 4
  %114 = sub nsw i32 %112, %113
  store i32 %114, i32* %4, align 4
  br label %115

115:                                              ; preds = %141, %110
  %116 = load i32, i32* %4, align 4
  %117 = load i32, i32* %6, align 4
  %118 = icmp sge i32 %116, %117
  br i1 %118, label %119, label %144

119:                                              ; preds = %115
  %120 = load i32, i32* %2, align 4
  %121 = load i32, i32* %6, align 4
  %122 = sub nsw i32 %120, %121
  %123 = sub nsw i32 %122, 1
  %124 = sext i32 %123 to i64
  %125 = getelementptr inbounds [100 x [100 x i32]], [100 x [100 x i32]]* %8, i64 0, i64 %124
  %126 = load i32, i32* %4, align 4
  %127 = sext i32 %126 to i64
  %128 = getelementptr inbounds [100 x i32], [100 x i32]* %125, i64 0, i64 %127
  %129 = load i32, i32* %128, align 4
  %130 = call i32 (i8*, ...) @printf(i8* getelementptr inbounds ([4 x i8], [4 x i8]* @.str.2, i64 0, i64 0), i32 %129)
  %131 = load i32, i32* %7, align 4
  %132 = add nsw i32 %131, 1
  store i32 %132, i32* %7, align 4
  %133 = load i32, i32* %7, align 4
  %134 = load i32, i32* %2, align 4
  %135 = load i32, i32* %3, align 4
  %136 = mul nsw i32 %134, %135
  %137 = icmp ne i32 %133, %136
  br i1 %137, label %138, label %140

138:                                              ; preds = %119
  %139 = call i32 (i8*, ...) @printf(i8* getelementptr inbounds ([2 x i8], [2 x i8]* @.str.3, i64 0, i64 0))
  br label %140

140:                                              ; preds = %138, %119
  br label %141

141:                                              ; preds = %140
  %142 = load i32, i32* %4, align 4
  %143 = add nsw i32 %142, -1
  store i32 %143, i32* %4, align 4
  br label %115

144:                                              ; preds = %115
  %145 = load i32, i32* %7, align 4
  %146 = load i32, i32* %2, align 4
  %147 = load i32, i32* %3, align 4
  %148 = mul nsw i32 %146, %147
  %149 = icmp eq i32 %145, %148
  br i1 %149, label %150, label %151

150:                                              ; preds = %144
  br label %193

151:                                              ; preds = %144
  %152 = load i32, i32* %2, align 4
  %153 = sub nsw i32 %152, 2
  %154 = load i32, i32* %6, align 4
  %155 = sub nsw i32 %153, %154
  store i32 %155, i32* %5, align 4
  br label %156

156:                                              ; preds = %179, %151
  %157 = load i32, i32* %5, align 4
  %158 = load i32, i32* %6, align 4
  %159 = icmp sgt i32 %157, %158
  br i1 %159, label %160, label %182

160:                                              ; preds = %156
  %161 = load i32, i32* %5, align 4
  %162 = sext i32 %161 to i64
  %163 = getelementptr inbounds [100 x [100 x i32]], [100 x [100 x i32]]* %8, i64 0, i64 %162
  %164 = load i32, i32* %6, align 4
  %165 = sext i32 %164 to i64
  %166 = getelementptr inbounds [100 x i32], [100 x i32]* %163, i64 0, i64 %165
  %167 = load i32, i32* %166, align 4
  %168 = call i32 (i8*, ...) @printf(i8* getelementptr inbounds ([4 x i8], [4 x i8]* @.str.2, i64 0, i64 0), i32 %167)
  %169 = load i32, i32* %7, align 4
  %170 = add nsw i32 %169, 1
  store i32 %170, i32* %7, align 4
  %171 = load i32, i32* %7, align 4
  %172 = load i32, i32* %2, align 4
  %173 = load i32, i32* %3, align 4
  %174 = mul nsw i32 %172, %173
  %175 = icmp ne i32 %171, %174
  br i1 %175, label %176, label %178

176:                                              ; preds = %160
  %177 = call i32 (i8*, ...) @printf(i8* getelementptr inbounds ([2 x i8], [2 x i8]* @.str.3, i64 0, i64 0))
  br label %178

178:                                              ; preds = %176, %160
  br label %179

179:                                              ; preds = %178
  %180 = load i32, i32* %5, align 4
  %181 = add nsw i32 %180, -1
  store i32 %181, i32* %5, align 4
  br label %156

182:                                              ; preds = %156
  %183 = load i32, i32* %7, align 4
  %184 = load i32, i32* %2, align 4
  %185 = load i32, i32* %3, align 4
  %186 = mul nsw i32 %184, %185
  %187 = icmp eq i32 %183, %186
  br i1 %187, label %188, label %189

188:                                              ; preds = %182
  br label %193

189:                                              ; preds = %182
  br label %190

190:                                              ; preds = %189
  %191 = load i32, i32* %6, align 4
  %192 = add nsw i32 %191, 1
  store i32 %192, i32* %6, align 4
  br label %35

193:                                              ; preds = %188, %150, %109, %68
  ret i32 0
}

declare dso_local i32 @__isoc99_scanf(i8*, ...) #1

declare dso_local i32 @printf(i8*, ...) #1


!llvm.module.flags = !{!0}
!llvm.ident = !{!1}

!0 = !{i32 1, !"wchar_size", i32 4}
!1 = !{!"clang version 10.0.0-4ubuntu1 "}
